target datalayout = "e-m:e-p270:32:32-p271:32:32-p272:64:64-i64:64-i128:128-f80:128-n8:16:32:64-S128"
target triple = "x86_64-unknown-linux-gnu"

%struct.EEPRO100State = type { %struct.PCIDevice, [8 x i8], %struct.MemoryRegion, %struct.MemoryRegion, %struct.MemoryRegion, ptr, %struct.NICConf, i8, i8, [32 x i16], ptr, i32, i32, i32, i32, i32, i32, %struct.eepro100_tx_t, i32, %struct.eepro100_stats_t, [4 x i8], [4096 x i8], [22 x i8], ptr, i16, i8 }
%struct.PCIDevice = type { %struct.DeviceState, i8, i8, ptr, ptr, ptr, ptr, ptr, i32, %struct.PCIReqIDCache, [64 x i8], [7 x %struct.PCIIORegion], %struct.AddressSpace, %struct.MemoryRegion, %struct.MemoryRegion, ptr, ptr, [3 x ptr], i8, i8, i32, i8, i32, ptr, ptr, ptr, ptr, ptr, ptr, %struct.MemoryRegion, %struct.MemoryRegion, %struct.MemoryRegion, ptr, i8, i32, i8, %struct.PCIExpressDevice, ptr, ptr, i32, i8, %struct.MemoryRegion, i32, ptr, ptr, ptr, ptr, ptr, i32 }
%struct.DeviceState = type { %struct.Object, ptr, ptr, i8, i8, i64, ptr, i32, i8, ptr, %struct.NamedGPIOListHead, %struct.NamedClockListHead, %struct.BusStateHead, i32, i32, i32, %struct.ResettableState, ptr, %struct.MemReentrancyGuard }
%struct.Object = type { ptr, ptr, ptr, i32, ptr }
%struct.NamedGPIOListHead = type { ptr }
%struct.NamedClockListHead = type { ptr }
%struct.BusStateHead = type { ptr }
%struct.ResettableState = type { i32, i8, i8 }
%struct.MemReentrancyGuard = type { i8 }
%struct.PCIReqIDCache = type { ptr, i32 }
%struct.PCIIORegion = type { i64, i64, i8, ptr, ptr }
%struct.AddressSpace = type { %struct.rcu_head, ptr, ptr, ptr, i32, i32, ptr, %union.anon.0, %union.anon.1 }
%struct.rcu_head = type { ptr, ptr }
%union.anon.0 = type { %struct.QTailQLink }
%struct.QTailQLink = type { ptr, ptr }
%union.anon.1 = type { %struct.QTailQLink }
%struct.PCIExpressDevice = type { i8, i8, i8, i16, %struct.PCIEAERLog, i16, i16, i16, %struct.PCIESriovPF, %struct.PCIESriovVF }
%struct.PCIEAERLog = type { i16, i16, ptr }
%struct.PCIESriovPF = type { i16, [7 x i8], ptr, ptr }
%struct.PCIESriovVF = type { ptr, i16 }
%struct.MemoryRegion = type { %struct.Object, i8, i8, i8, i8, i8, i8, i8, i8, i8, i8, ptr, ptr, ptr, ptr, ptr, ptr, i32, i128, i64, ptr, i64, i8, i8, i8, i8, i8, ptr, i64, i32, %union.anon.2, %union.anon.3, %union.anon.4, ptr, i32, ptr, ptr, i8 }
%union.anon.2 = type { %struct.QTailQLink }
%union.anon.3 = type { %struct.QTailQLink }
%union.anon.4 = type { %struct.QTailQLink }
%struct.NICConf = type { %struct.MACAddr, %struct.NICPeers, i32 }
%struct.MACAddr = type { [6 x i8] }
%struct.NICPeers = type { [1024 x ptr], i32 }
%struct.eepro100_tx_t = type { i16, i16, i32, i32, i16, i8, i8 }
%struct.eepro100_stats_t = type { i32, i32, i32, i32, i32, i32, i32, i32, i32, i32, i32, i32, i32, i32, i32, i32, i32, i32, i32, i16, i16, [4 x i32] }

@.str.33 = private unnamed_addr constant [26 x i8] c"../qemu/hw/net/eepro100.c\00", align 1
@.str.39 = private unnamed_addr constant [11 x i8] c"vmstate-if\00", align 1
@__func__.pci_nic_uninit = private unnamed_addr constant [15 x i8] c"pci_nic_uninit\00", align 1

; Function Attrs: nounwind sspstrong uwtable
define internal void @pci_nic_uninit(ptr noundef %pci_dev) #0 {
entry:
  %pci_dev.addr = alloca ptr, align 8
  %s = alloca ptr, align 8
  %tmp = alloca ptr, align 8
  %__mptr = alloca ptr, align 8
  %tmp1 = alloca ptr, align 8
  store ptr %pci_dev, ptr %pci_dev.addr, align 8
  %0 = load ptr, ptr %pci_dev.addr, align 8
  store ptr %0, ptr %__mptr, align 8
  %1 = load ptr, ptr %__mptr, align 8
  %add.ptr = getelementptr i8, ptr %1, i64 0
  store ptr %add.ptr, ptr %tmp1, align 8
  %2 = load ptr, ptr %tmp1, align 8
  store ptr %2, ptr %tmp, align 8
  %3 = load ptr, ptr %tmp, align 8
  store ptr %3, ptr %s, align 8
  %4 = load ptr, ptr %pci_dev.addr, align 8
  %qdev = getelementptr inbounds %struct.PCIDevice, ptr %4, i32 0, i32 0
  %call = call ptr @object_dynamic_cast_assert(ptr noundef %qdev, ptr noundef @.str.39, ptr noundef @.str.33, i32 noundef 1827, ptr noundef @__func__.pci_nic_uninit)
  %5 = load ptr, ptr %s, align 8
  %vmstate = getelementptr inbounds %struct.EEPRO100State, ptr %5, i32 0, i32 23
  %6 = load ptr, ptr %vmstate, align 8
  %7 = load ptr, ptr %s, align 8
  call void @vmstate_unregister(ptr noundef %call, ptr noundef %6, ptr noundef %7)
  %8 = load ptr, ptr %s, align 8
  %vmstate2 = getelementptr inbounds %struct.EEPRO100State, ptr %8, i32 0, i32 23
  %9 = load ptr, ptr %vmstate2, align 8
  call void @g_free(ptr noundef %9)
  %10 = load ptr, ptr %pci_dev.addr, align 8
  %qdev3 = getelementptr inbounds %struct.PCIDevice, ptr %10, i32 0, i32 0
  %11 = load ptr, ptr %s, align 8
  %eeprom = getelementptr inbounds %struct.EEPRO100State, ptr %11, i32 0, i32 10
  %12 = load ptr, ptr %eeprom, align 8
  call void @eeprom93xx_free(ptr noundef %qdev3, ptr noundef %12)
  %13 = load ptr, ptr %s, align 8
  %nic = getelementptr inbounds %struct.EEPRO100State, ptr %13, i32 0, i32 5
  %14 = load ptr, ptr %nic, align 16
  call void @qemu_del_nic(ptr noundef %14)
  ret void
}