; Function Attrs: nounwind sspstrong uwtable
define internal void @pci_nic_uninit(ptr noundef %pci_dev) #0 {
entry:
  %call = tail call ptr @object_dynamic_cast_assert(ptr noundef %pci_dev, ptr noundef nonnull @.str.39, ptr noundef nonnull @.str.33, i32 noundef 1827, ptr noundef nonnull @__func__.pci_nic_uninit) #12
  %vmstate = getelementptr inbounds nuw i8, ptr %pci_dev, i64 16008
  %0 = load ptr, ptr %vmstate, align 8
  tail call void @vmstate_unregister(ptr noundef %call, ptr noundef %0, ptr noundef %pci_dev) #12
  %1 = load ptr, ptr %vmstate, align 8
  tail call void @g_free(ptr noundef %1) #12
  %eeprom = getelementptr inbounds nuw i8, ptr %pci_dev, i64 11736
  %2 = load ptr, ptr %eeprom, align 8
  tail call void @eeprom93xx_free(ptr noundef %pci_dev, ptr noundef %2) #12
  %nic = getelementptr inbounds nuw i8, ptr %pci_dev, i64 3440
  %3 = load ptr, ptr %nic, align 16
  tail call void @qemu_del_nic(ptr noundef %3) #12
  ret void
}